
leds.elf:     file format elf32-littlearm


Disassembly of section .text:

30000000 <_start>:
30000000:	e3a00453 	mov	r0, #1392508928	; 0x53000000
30000004:	e3a01000 	mov	r1, #0
30000008:	e5801000 	str	r1, [r0]
3000000c:	e3a0d30d 	mov	sp, #872415232	; 0x34000000
30000010:	eb000000 	bl	30000018 <main>

30000014 <halt_loop>:
30000014:	eafffffe 	b	30000014 <halt_loop>

30000018 <main>:
30000018:	e92d4800 	push	{fp, lr}
3000001c:	e28db004 	add	fp, sp, #4
30000020:	e24ddb1e 	sub	sp, sp, #30720	; 0x7800
30000024:	e24dd008 	sub	sp, sp, #8
30000028:	e3a03000 	mov	r3, #0
3000002c:	e50b3008 	str	r3, [fp, #-8]
30000030:	eb000052 	bl	30000180 <clock_init>
30000034:	eb000061 	bl	300001c0 <uart_init>
30000038:	eb000019 	bl	300000a4 <led_init>
3000003c:	e59f005c 	ldr	r0, [pc, #92]	; 300000a0 <main+0x88>
30000040:	eb0000a9 	bl	300002ec <uart_put_str>
30000044:	e3a03000 	mov	r3, #0
30000048:	e50b3008 	str	r3, [fp, #-8]
3000004c:	ea000004 	b	30000064 <main+0x4c>
30000050:	e51b0008 	ldr	r0, [fp, #-8]
30000054:	eb000022 	bl	300000e4 <led_on>
30000058:	e51b3008 	ldr	r3, [fp, #-8]
3000005c:	e2833001 	add	r3, r3, #1
30000060:	e50b3008 	str	r3, [fp, #-8]
30000064:	e51b3008 	ldr	r3, [fp, #-8]
30000068:	e3530003 	cmp	r3, #3
3000006c:	dafffff7 	ble	30000050 <main+0x38>
30000070:	e3a03000 	mov	r3, #0
30000074:	e50b3008 	str	r3, [fp, #-8]
30000078:	ea000004 	b	30000090 <main+0x78>
3000007c:	e51b0008 	ldr	r0, [fp, #-8]
30000080:	eb00002b 	bl	30000134 <led_off>
30000084:	e51b3008 	ldr	r3, [fp, #-8]
30000088:	e2833001 	add	r3, r3, #1
3000008c:	e50b3008 	str	r3, [fp, #-8]
30000090:	e51b3008 	ldr	r3, [fp, #-8]
30000094:	e3530003 	cmp	r3, #3
30000098:	dafffff7 	ble	3000007c <main+0x64>
3000009c:	eaffffe6 	b	3000003c <main+0x24>
300000a0:	30000340 	andcc	r0, r0, r0, asr #6

300000a4 <led_init>:
300000a4:	e52db004 	push	{fp}		; (str fp, [sp, #-4]!)
300000a8:	e28db000 	add	fp, sp, #0
300000ac:	e59f3024 	ldr	r3, [pc, #36]	; 300000d8 <led_init+0x34>
300000b0:	e3a02b55 	mov	r2, #87040	; 0x15400
300000b4:	e5832000 	str	r2, [r3]
300000b8:	e59f301c 	ldr	r3, [pc, #28]	; 300000dc <led_init+0x38>
300000bc:	e59f201c 	ldr	r2, [pc, #28]	; 300000e0 <led_init+0x3c>
300000c0:	e5832000 	str	r2, [r3]
300000c4:	e3a03000 	mov	r3, #0
300000c8:	e1a00003 	mov	r0, r3
300000cc:	e24bd000 	sub	sp, fp, #0
300000d0:	e49db004 	pop	{fp}		; (ldr fp, [sp], #4)
300000d4:	e12fff1e 	bx	lr
300000d8:	56000010 			; <UNDEFINED> instruction: 0x56000010
300000dc:	56000014 			; <UNDEFINED> instruction: 0x56000014
300000e0:	000007ff 	strdeq	r0, [r0], -pc	; <UNPREDICTABLE>

300000e4 <led_on>:
300000e4:	e52db004 	push	{fp}		; (str fp, [sp, #-4]!)
300000e8:	e28db000 	add	fp, sp, #0
300000ec:	e24dd00c 	sub	sp, sp, #12
300000f0:	e50b0008 	str	r0, [fp, #-8]
300000f4:	e59f1034 	ldr	r1, [pc, #52]	; 30000130 <led_on+0x4c>
300000f8:	e59f3030 	ldr	r3, [pc, #48]	; 30000130 <led_on+0x4c>
300000fc:	e5933000 	ldr	r3, [r3]
30000100:	e51b2008 	ldr	r2, [fp, #-8]
30000104:	e2822005 	add	r2, r2, #5
30000108:	e3a00001 	mov	r0, #1
3000010c:	e1a02210 	lsl	r2, r0, r2
30000110:	e1e02002 	mvn	r2, r2
30000114:	e0033002 	and	r3, r3, r2
30000118:	e5813000 	str	r3, [r1]
3000011c:	e3a03000 	mov	r3, #0
30000120:	e1a00003 	mov	r0, r3
30000124:	e24bd000 	sub	sp, fp, #0
30000128:	e49db004 	pop	{fp}		; (ldr fp, [sp], #4)
3000012c:	e12fff1e 	bx	lr
30000130:	56000014 			; <UNDEFINED> instruction: 0x56000014

30000134 <led_off>:
30000134:	e52db004 	push	{fp}		; (str fp, [sp, #-4]!)
30000138:	e28db000 	add	fp, sp, #0
3000013c:	e24dd00c 	sub	sp, sp, #12
30000140:	e50b0008 	str	r0, [fp, #-8]
30000144:	e59f1030 	ldr	r1, [pc, #48]	; 3000017c <led_off+0x48>
30000148:	e59f302c 	ldr	r3, [pc, #44]	; 3000017c <led_off+0x48>
3000014c:	e5933000 	ldr	r3, [r3]
30000150:	e51b2008 	ldr	r2, [fp, #-8]
30000154:	e2822005 	add	r2, r2, #5
30000158:	e3a00001 	mov	r0, #1
3000015c:	e1a02210 	lsl	r2, r0, r2
30000160:	e1833002 	orr	r3, r3, r2
30000164:	e5813000 	str	r3, [r1]
30000168:	e3a03000 	mov	r3, #0
3000016c:	e1a00003 	mov	r0, r3
30000170:	e24bd000 	sub	sp, fp, #0
30000174:	e49db004 	pop	{fp}		; (ldr fp, [sp], #4)
30000178:	e12fff1e 	bx	lr
3000017c:	56000014 			; <UNDEFINED> instruction: 0x56000014

30000180 <clock_init>:
30000180:	e52db004 	push	{fp}		; (str fp, [sp, #-4]!)
30000184:	e28db000 	add	fp, sp, #0
30000188:	e59f3024 	ldr	r3, [pc, #36]	; 300001b4 <clock_init+0x34>
3000018c:	e3a02003 	mov	r2, #3
30000190:	e5832000 	str	r2, [r3]
30000194:	e59f301c 	ldr	r3, [pc, #28]	; 300001b8 <clock_init+0x38>
30000198:	e59f201c 	ldr	r2, [pc, #28]	; 300001bc <clock_init+0x3c>
3000019c:	e5832000 	str	r2, [r3]
300001a0:	e1a00000 	nop			; (mov r0, r0)
300001a4:	e1a00003 	mov	r0, r3
300001a8:	e24bd000 	sub	sp, fp, #0
300001ac:	e49db004 	pop	{fp}		; (ldr fp, [sp], #4)
300001b0:	e12fff1e 	bx	lr
300001b4:	4c000014 	stcmi	0, cr0, [r0], {20}
300001b8:	4c000004 	stcmi	0, cr0, [r0], {4}
300001bc:	0005c012 	andeq	ip, r5, r2, lsl r0

300001c0 <uart_init>:
300001c0:	e52db004 	push	{fp}		; (str fp, [sp, #-4]!)
300001c4:	e28db000 	add	fp, sp, #0
300001c8:	e59f2078 	ldr	r2, [pc, #120]	; 30000248 <uart_init+0x88>
300001cc:	e59f3074 	ldr	r3, [pc, #116]	; 30000248 <uart_init+0x88>
300001d0:	e5d33000 	ldrb	r3, [r3]
300001d4:	e20330ff 	and	r3, r3, #255	; 0xff
300001d8:	e1e03003 	mvn	r3, r3
300001dc:	e203305f 	and	r3, r3, #95	; 0x5f
300001e0:	e1e03003 	mvn	r3, r3
300001e4:	e20330ff 	and	r3, r3, #255	; 0xff
300001e8:	e5c23000 	strb	r3, [r2]
300001ec:	e59f3058 	ldr	r3, [pc, #88]	; 3000024c <uart_init+0x8c>
300001f0:	e3a0200c 	mov	r2, #12
300001f4:	e5c32000 	strb	r2, [r3]
300001f8:	e3a03205 	mov	r3, #1342177280	; 0x50000000
300001fc:	e3a02003 	mov	r2, #3
30000200:	e5832000 	str	r2, [r3]
30000204:	e3a03245 	mov	r3, #1342177284	; 0x50000004
30000208:	e3a02005 	mov	r2, #5
3000020c:	e5832000 	str	r2, [r3]
30000210:	e3a03285 	mov	r3, #1342177288	; 0x50000008
30000214:	e3a02000 	mov	r2, #0
30000218:	e5832000 	str	r2, [r3]
3000021c:	e3a032c5 	mov	r3, #1342177292	; 0x5000000c
30000220:	e3a02000 	mov	r2, #0
30000224:	e5832000 	str	r2, [r3]
30000228:	e59f3020 	ldr	r3, [pc, #32]	; 30000250 <uart_init+0x90>
3000022c:	e3a0201a 	mov	r2, #26
30000230:	e5832000 	str	r2, [r3]
30000234:	e1a00000 	nop			; (mov r0, r0)
30000238:	e1a00003 	mov	r0, r3
3000023c:	e24bd000 	sub	sp, fp, #0
30000240:	e49db004 	pop	{fp}		; (ldr fp, [sp], #4)
30000244:	e12fff1e 	bx	lr
30000248:	56000070 			; <UNDEFINED> instruction: 0x56000070
3000024c:	56000078 			; <UNDEFINED> instruction: 0x56000078
30000250:	50000028 	andpl	r0, r0, r8, lsr #32

30000254 <uart_get_char>:
30000254:	e52db004 	push	{fp}		; (str fp, [sp, #-4]!)
30000258:	e28db000 	add	fp, sp, #0
3000025c:	e1a00000 	nop			; (mov r0, r0)
30000260:	e59f3028 	ldr	r3, [pc, #40]	; 30000290 <uart_get_char+0x3c>
30000264:	e5933000 	ldr	r3, [r3]
30000268:	e2033001 	and	r3, r3, #1
3000026c:	e3530000 	cmp	r3, #0
30000270:	0afffffa 	beq	30000260 <uart_get_char+0xc>
30000274:	e59f3018 	ldr	r3, [pc, #24]	; 30000294 <uart_get_char+0x40>
30000278:	e5d33000 	ldrb	r3, [r3]
3000027c:	e20330ff 	and	r3, r3, #255	; 0xff
30000280:	e1a00003 	mov	r0, r3
30000284:	e24bd000 	sub	sp, fp, #0
30000288:	e49db004 	pop	{fp}		; (ldr fp, [sp], #4)
3000028c:	e12fff1e 	bx	lr
30000290:	50000010 	andpl	r0, r0, r0, lsl r0
30000294:	50000024 	andpl	r0, r0, r4, lsr #32

30000298 <uart_put_char>:
30000298:	e52db004 	push	{fp}		; (str fp, [sp, #-4]!)
3000029c:	e28db000 	add	fp, sp, #0
300002a0:	e24dd00c 	sub	sp, sp, #12
300002a4:	e1a03000 	mov	r3, r0
300002a8:	e54b3005 	strb	r3, [fp, #-5]
300002ac:	e1a00000 	nop			; (mov r0, r0)
300002b0:	e59f302c 	ldr	r3, [pc, #44]	; 300002e4 <uart_put_char+0x4c>
300002b4:	e5933000 	ldr	r3, [r3]
300002b8:	e2033004 	and	r3, r3, #4
300002bc:	e3530000 	cmp	r3, #0
300002c0:	0afffffa 	beq	300002b0 <uart_put_char+0x18>
300002c4:	e59f201c 	ldr	r2, [pc, #28]	; 300002e8 <uart_put_char+0x50>
300002c8:	e55b3005 	ldrb	r3, [fp, #-5]
300002cc:	e5c23000 	strb	r3, [r2]
300002d0:	e3a03000 	mov	r3, #0
300002d4:	e1a00003 	mov	r0, r3
300002d8:	e24bd000 	sub	sp, fp, #0
300002dc:	e49db004 	pop	{fp}		; (ldr fp, [sp], #4)
300002e0:	e12fff1e 	bx	lr
300002e4:	50000010 	andpl	r0, r0, r0, lsl r0
300002e8:	50000020 	andpl	r0, r0, r0, lsr #32

300002ec <uart_put_str>:
300002ec:	e92d4800 	push	{fp, lr}
300002f0:	e28db004 	add	fp, sp, #4
300002f4:	e24dd008 	sub	sp, sp, #8
300002f8:	e50b0008 	str	r0, [fp, #-8]
300002fc:	ea000006 	b	3000031c <uart_put_str+0x30>
30000300:	e51b3008 	ldr	r3, [fp, #-8]
30000304:	e5d33000 	ldrb	r3, [r3]
30000308:	e1a00003 	mov	r0, r3
3000030c:	ebffffe1 	bl	30000298 <uart_put_char>
30000310:	e51b3008 	ldr	r3, [fp, #-8]
30000314:	e2833001 	add	r3, r3, #1
30000318:	e50b3008 	str	r3, [fp, #-8]
3000031c:	e51b3008 	ldr	r3, [fp, #-8]
30000320:	e5d33000 	ldrb	r3, [r3]
30000324:	e3530000 	cmp	r3, #0
30000328:	1afffff4 	bne	30000300 <uart_put_str+0x14>
3000032c:	e3a03000 	mov	r3, #0
30000330:	e1a00003 	mov	r0, r3
30000334:	e24bd004 	sub	sp, fp, #4
30000338:	e8bd4800 	pop	{fp, lr}
3000033c:	e12fff1e 	bx	lr

Disassembly of section .rodata:

30000340 <__bss_end__-0x10010>:
30000340:	6c6c6568 	cfstr64vs	mvdx6, [ip], #-416	; 0xfffffe60
30000344:	696d206f 	stmdbvs	sp!, {r0, r1, r2, r3, r5, r6, sp}^
30000348:	3432696e 	ldrtcc	r6, [r2], #-2414	; 0xfffff692
3000034c:	000a3034 	andeq	r3, sl, r4, lsr r0

Disassembly of section .comment:

00000000 <.comment>:
   0:	3a434347 	bcc	10d0d24 <_stack+0x1050d24>
   4:	4e472820 	cdpmi	8, 4, cr2, cr7, cr0, {1}
   8:	6f542055 	svcvs	0x00542055
   c:	20736c6f 	rsbscs	r6, r3, pc, ror #24
  10:	20726f66 	rsbscs	r6, r2, r6, ror #30
  14:	204d5241 	subcs	r5, sp, r1, asr #4
  18:	65626d45 	strbvs	r6, [r2, #-3397]!	; 0xfffff2bb
  1c:	64656464 	strbtvs	r6, [r5], #-1124	; 0xfffffb9c
  20:	6f725020 	svcvs	0x00725020
  24:	73736563 	cmnvc	r3, #415236096	; 0x18c00000
  28:	2973726f 	ldmdbcs	r3!, {r0, r1, r2, r3, r5, r6, r9, ip, sp, lr}^
  2c:	342e3520 	strtcc	r3, [lr], #-1312	; 0xfffffae0
  30:	3220312e 	eorcc	r3, r0, #-2147483637	; 0x8000000b
  34:	30363130 	eorscc	r3, r6, r0, lsr r1
  38:	20393139 	eorscs	r3, r9, r9, lsr r1
  3c:	6c657228 	sfmvs	f7, 2, [r5], #-160	; 0xffffff60
  40:	65736165 	ldrbvs	r6, [r3, #-357]!	; 0xfffffe9b
  44:	415b2029 	cmpmi	fp, r9, lsr #32
  48:	652f4d52 	strvs	r4, [pc, #-3410]!	; fffff2fe <__bss_end__+0xcffeefae>
  4c:	6465626d 	strbtvs	r6, [r5], #-621	; 0xfffffd93
  50:	2d646564 	cfstr64cs	mvdx6, [r4, #-400]!	; 0xfffffe70
  54:	72622d35 	rsbvc	r2, r2, #3392	; 0xd40
  58:	68636e61 	stmdavs	r3!, {r0, r5, r6, r9, sl, fp, sp, lr}^
  5c:	76657220 	strbtvc	r7, [r5], -r0, lsr #4
  60:	6f697369 	svcvs	0x00697369
  64:	3432206e 	ldrtcc	r2, [r2], #-110	; 0xffffff92
  68:	36393430 			; <UNDEFINED> instruction: 0x36393430
  6c:	Address 0x0000006c is out of bounds.


Disassembly of section .debug_aranges:

00000000 <.debug_aranges>:
   0:	0000001c 	andeq	r0, r0, ip, lsl r0
   4:	00000002 	andeq	r0, r0, r2
   8:	00040000 	andeq	r0, r4, r0
   c:	00000000 	andeq	r0, r0, r0
  10:	30000000 	andcc	r0, r0, r0
  14:	00000018 	andeq	r0, r0, r8, lsl r0
	...
  20:	0000001c 	andeq	r0, r0, ip, lsl r0
  24:	00460002 	subeq	r0, r6, r2
  28:	00040000 	andeq	r0, r4, r0
  2c:	00000000 	andeq	r0, r0, r0
  30:	30000018 	andcc	r0, r0, r8, lsl r0
  34:	0000008c 	andeq	r0, r0, ip, lsl #1
	...
  40:	0000001c 	andeq	r0, r0, ip, lsl r0
  44:	00c80002 	sbceq	r0, r8, r2
  48:	00040000 	andeq	r0, r4, r0
  4c:	00000000 	andeq	r0, r0, r0
  50:	300000a4 	andcc	r0, r0, r4, lsr #1
  54:	000000dc 	ldrdeq	r0, [r0], -ip
	...
  60:	0000001c 	andeq	r0, r0, ip, lsl r0
  64:	01560002 	cmpeq	r6, r2
  68:	00040000 	andeq	r0, r4, r0
  6c:	00000000 	andeq	r0, r0, r0
  70:	30000180 	andcc	r0, r0, r0, lsl #3
  74:	00000040 	andeq	r0, r0, r0, asr #32
	...
  80:	0000001c 	andeq	r0, r0, ip, lsl r0
  84:	01980002 	orrseq	r0, r8, r2
  88:	00040000 	andeq	r0, r4, r0
  8c:	00000000 	andeq	r0, r0, r0
  90:	300001c0 	andcc	r0, r0, r0, asr #3
  94:	00000180 	andeq	r0, r0, r0, lsl #3
	...

Disassembly of section .debug_info:

00000000 <.debug_info>:
   0:	00000042 	andeq	r0, r0, r2, asr #32
   4:	00000002 	andeq	r0, r0, r2
   8:	01040000 	mrseq	r0, (UNDEF: 4)
   c:	00000000 	andeq	r0, r0, r0
  10:	30000000 	andcc	r0, r0, r0
  14:	30000018 	andcc	r0, r0, r8, lsl r0
  18:	72617473 	rsbvc	r7, r1, #1929379840	; 0x73000000
  1c:	00532e74 	subseq	r2, r3, r4, ror lr
  20:	6d5c3a46 	vldrvs	s7, [ip, #-280]	; 0xfffffee8
  24:	32696e69 	rsbcc	r6, r9, #1680	; 0x690
  28:	5c303434 	cfldrspl	mvf3, [r0], #-208	; 0xffffff30
  2c:	6b726f77 	blvs	1c9be10 <_stack+0x1c1be10>
  30:	656c5c31 	strbvs	r5, [ip, #-3121]!	; 0xfffff3cf
  34:	4e470064 	cdpmi	0, 4, cr0, cr7, cr4, {3}
  38:	53412055 	movtpl	r2, #4181	; 0x1055
  3c:	322e3220 	eorcc	r3, lr, #32, 4
  40:	00322e36 	eorseq	r2, r2, r6, lsr lr
  44:	007e8001 	rsbseq	r8, lr, r1
  48:	00040000 	andeq	r0, r4, r0
  4c:	00000014 	andeq	r0, r0, r4, lsl r0
  50:	000e0104 	andeq	r0, lr, r4, lsl #2
  54:	5a0c0000 	bpl	30005c <_stack+0x28005c>
  58:	6f000000 	svcvs	0x00000000
  5c:	18000000 	stmdane	r0, {}	; <UNPREDICTABLE>
  60:	8c300000 	ldchi	0, cr0, [r0], #-0
  64:	3a000000 	bcc	6c <_stack-0x7ff94>
  68:	02000000 	andeq	r0, r0, #0
  6c:	00000009 	andeq	r0, r0, r9
  70:	005b0501 	subseq	r0, fp, r1, lsl #10
  74:	00180000 	andseq	r0, r8, r0
  78:	008c3000 	addeq	r3, ip, r0
  7c:	9c010000 	stcls	0, cr0, [r1], {-0}
  80:	0000005b 	andeq	r0, r0, fp, asr r0
  84:	01006903 	tsteq	r0, r3, lsl #18
  88:	00005b07 	andeq	r5, r0, r7, lsl #22
  8c:	74910200 	ldrvc	r0, [r1], #512	; 0x200
  90:	66756203 	ldrbtvs	r6, [r5], -r3, lsl #4
  94:	62090100 	andvs	r0, r9, #0, 2
  98:	04000000 	streq	r0, [r0], #-0
  9c:	7e8ff491 	mcrvc	4, 4, pc, cr15, cr1, {4}	; <UNPREDICTABLE>
  a0:	05040400 	streq	r0, [r4, #-1024]	; 0xfffffc00
  a4:	00746e69 	rsbseq	r6, r4, r9, ror #28
  a8:	00007a05 	andeq	r7, r0, r5, lsl #20
  ac:	00007300 	andeq	r7, r0, r0, lsl #6
  b0:	00730600 	rsbseq	r0, r3, r0, lsl #12
  b4:	77ff0000 	ldrbvc	r0, [pc, r0]!
  b8:	07040700 	streq	r0, [r4, -r0, lsl #14]
  bc:	00000000 	andeq	r0, r0, r0
  c0:	61080107 	tstvs	r8, r7, lsl #2
  c4:	00000000 	andeq	r0, r0, r0
  c8:	0000008a 	andeq	r0, r0, sl, lsl #1
  cc:	00790004 	rsbseq	r0, r9, r4
  d0:	01040000 	mrseq	r0, (UNDEF: 4)
  d4:	0000000e 	andeq	r0, r0, lr
  d8:	0000e00c 	andeq	lr, r0, ip
  dc:	0000c200 	andeq	ip, r0, r0, lsl #4
  e0:	0000a400 	andeq	sl, r0, r0, lsl #8
  e4:	0000dc30 	andeq	sp, r0, r0, lsr ip
  e8:	00009800 	andeq	r9, r0, r0, lsl #16
  ec:	00b20200 	adcseq	r0, r2, r0, lsl #4
  f0:	0b010000 	bleq	400f8 <_stack-0x3ff08>
  f4:	0000003a 	andeq	r0, r0, sl, lsr r0
  f8:	300000a4 	andcc	r0, r0, r4, lsr #1
  fc:	00000040 	andeq	r0, r0, r0, asr #32
 100:	04039c01 	streq	r9, [r3], #-3073	; 0xfffff3ff
 104:	746e6905 	strbtvc	r6, [lr], #-2309	; 0xfffff6fb
 108:	00bb0400 	adcseq	r0, fp, r0, lsl #8
 10c:	15010000 	strne	r0, [r1, #-0]
 110:	0000003a 	andeq	r0, r0, sl, lsr r0
 114:	300000e4 	andcc	r0, r0, r4, ror #1
 118:	00000050 	andeq	r0, r0, r0, asr r0
 11c:	00699c01 	rsbeq	r9, r9, r1, lsl #24
 120:	6c050000 	stcvs	0, cr0, [r5], {-0}
 124:	01006465 	tsteq	r0, r5, ror #8
 128:	00003a15 	andeq	r3, r0, r5, lsl sl
 12c:	74910200 	ldrvc	r0, [r1], #512	; 0x200
 130:	00d80600 	sbcseq	r0, r8, r0, lsl #12
 134:	1c010000 	stcne	0, cr0, [r1], {-0}
 138:	0000003a 	andeq	r0, r0, sl, lsr r0
 13c:	30000134 	andcc	r0, r0, r4, lsr r1
 140:	0000004c 	andeq	r0, r0, ip, asr #32
 144:	6c059c01 	stcvs	12, cr9, [r5], {1}
 148:	01006465 	tsteq	r0, r5, ror #8
 14c:	00003a1c 	andeq	r3, r0, ip, lsl sl
 150:	74910200 	ldrvc	r0, [r1], #512	; 0x200
 154:	003e0000 	eorseq	r0, lr, r0
 158:	00040000 	andeq	r0, r4, r0
 15c:	000000f5 	strdeq	r0, [r0], -r5
 160:	000e0104 	andeq	r0, lr, r4, lsl #2
 164:	f10c0000 	cpsid	
 168:	c2000000 	andgt	r0, r0, #0
 16c:	80000000 	andhi	r0, r0, r0
 170:	40300001 	eorsmi	r0, r0, r1
 174:	db000000 	blle	17c <_stack-0x7fe84>
 178:	02000000 	andeq	r0, r0, #0
 17c:	000000e6 	andeq	r0, r0, r6, ror #1
 180:	003a1201 	eorseq	r1, sl, r1, lsl #4
 184:	01800000 	orreq	r0, r0, r0
 188:	00403000 	subeq	r3, r0, r0
 18c:	9c010000 	stcls	0, cr0, [r1], {-0}
 190:	69050403 	stmdbvs	r5, {r0, r1, sl}
 194:	0000746e 	andeq	r7, r0, lr, ror #8
 198:	000000ae 	andeq	r0, r0, lr, lsr #1
 19c:	012c0004 			; <UNDEFINED> instruction: 0x012c0004
 1a0:	01040000 	mrseq	r0, (UNDEF: 4)
 1a4:	0000000e 	andeq	r0, r0, lr
 1a8:	0001320c 	andeq	r3, r1, ip, lsl #4
 1ac:	0000c200 	andeq	ip, r0, r0, lsl #4
 1b0:	0001c000 	andeq	ip, r1, r0
 1b4:	00018030 	andeq	r8, r1, r0, lsr r0
 1b8:	00011500 	andeq	r1, r1, r0, lsl #10
 1bc:	01140200 	tsteq	r4, r0, lsl #4
 1c0:	13010000 	movwne	r0, #4096	; 0x1000
 1c4:	0000003a 	andeq	r0, r0, sl, lsr r0
 1c8:	300001c0 	andcc	r0, r0, r0, asr #3
 1cc:	00000094 	muleq	r0, r4, r0
 1d0:	04039c01 	streq	r9, [r3], #-3073	; 0xfffff3ff
 1d4:	746e6905 	strbtvc	r6, [lr], #-2309	; 0xfffff6fb
 1d8:	011e0200 	tsteq	lr, r0, lsl #4
 1dc:	20010000 	andcs	r0, r1, r0
 1e0:	00000056 	andeq	r0, r0, r6, asr r0
 1e4:	30000254 	andcc	r0, r0, r4, asr r2
 1e8:	00000044 	andeq	r0, r0, r4, asr #32
 1ec:	01049c01 	tsteq	r4, r1, lsl #24
 1f0:	00006108 	andeq	r6, r0, r8, lsl #2
 1f4:	01060500 	tsteq	r6, r0, lsl #10
 1f8:	27010000 	strcs	r0, [r1, -r0]
 1fc:	0000003a 	andeq	r0, r0, sl, lsr r0
 200:	30000298 	mulcc	r0, r8, r2
 204:	00000054 	andeq	r0, r0, r4, asr r0
 208:	00839c01 	addeq	r9, r3, r1, lsl #24
 20c:	63060000 	movwvs	r0, #24576	; 0x6000
 210:	56270100 	strtpl	r0, [r7], -r0, lsl #2
 214:	02000000 	andeq	r0, r0, #0
 218:	07007791 			; <UNDEFINED> instruction: 0x07007791
 21c:	000000f9 	strdeq	r0, [r0], -r9
 220:	003a2e01 	eorseq	r2, sl, r1, lsl #28
 224:	02ec0000 	rsceq	r0, ip, #0
 228:	00543000 	subseq	r3, r4, r0
 22c:	9c010000 	stcls	0, cr0, [r1], {-0}
 230:	000000ab 	andeq	r0, r0, fp, lsr #1
 234:	00012c08 	andeq	r2, r1, r8, lsl #24
 238:	ab2e0100 	blge	b80640 <_stack+0xb00640>
 23c:	02000000 	andeq	r0, r0, #0
 240:	09007491 	stmdbeq	r0, {r0, r4, r7, sl, ip, sp, lr}
 244:	00005604 	andeq	r5, r0, r4, lsl #12
	...

Disassembly of section .debug_abbrev:

00000000 <.debug_abbrev>:
   0:	10001101 	andne	r1, r0, r1, lsl #2
   4:	12011106 	andne	r1, r1, #-2147483647	; 0x80000001
   8:	1b080301 	blne	200c14 <_stack+0x180c14>
   c:	13082508 	movwne	r2, #34056	; 0x8508
  10:	00000005 	andeq	r0, r0, r5
  14:	25011101 	strcs	r1, [r1, #-257]	; 0xfffffeff
  18:	030b130e 	movweq	r1, #45838	; 0xb30e
  1c:	110e1b0e 	tstne	lr, lr, lsl #22
  20:	10061201 	andne	r1, r6, r1, lsl #4
  24:	02000017 	andeq	r0, r0, #23
  28:	193f012e 	ldmdbne	pc!, {r1, r2, r3, r5, r8}	; <UNPREDICTABLE>
  2c:	0b3a0e03 	bleq	e83840 <_stack+0xe03840>
  30:	13490b3b 	movtne	r0, #39739	; 0x9b3b
  34:	06120111 			; <UNDEFINED> instruction: 0x06120111
  38:	42961840 	addsmi	r1, r6, #64, 16	; 0x400000
  3c:	00130119 	andseq	r0, r3, r9, lsl r1
  40:	00340300 	eorseq	r0, r4, r0, lsl #6
  44:	0b3a0803 	bleq	e82058 <_stack+0xe02058>
  48:	13490b3b 	movtne	r0, #39739	; 0x9b3b
  4c:	00001802 	andeq	r1, r0, r2, lsl #16
  50:	0b002404 	bleq	9068 <_stack-0x76f98>
  54:	030b3e0b 	movweq	r3, #48651	; 0xbe0b
  58:	05000008 	streq	r0, [r0, #-8]
  5c:	13490101 	movtne	r0, #37121	; 0x9101
  60:	00001301 	andeq	r1, r0, r1, lsl #6
  64:	49002106 	stmdbmi	r0, {r1, r2, r8, sp}
  68:	00052f13 	andeq	r2, r5, r3, lsl pc
  6c:	00240700 	eoreq	r0, r4, r0, lsl #14
  70:	0b3e0b0b 	bleq	f82ca4 <_stack+0xf02ca4>
  74:	00000e03 	andeq	r0, r0, r3, lsl #28
  78:	01110100 	tsteq	r1, r0, lsl #2
  7c:	0b130e25 	bleq	4c3918 <_stack+0x443918>
  80:	0e1b0e03 	cdpeq	14, 1, cr0, cr11, cr3, {0}
  84:	06120111 			; <UNDEFINED> instruction: 0x06120111
  88:	00001710 	andeq	r1, r0, r0, lsl r7
  8c:	3f002e02 	svccc	0x00002e02
  90:	3a0e0319 	bcc	380cfc <_stack+0x300cfc>
  94:	490b3b0b 	stmdbmi	fp, {r0, r1, r3, r8, r9, fp, ip, sp}
  98:	12011113 	andne	r1, r1, #-1073741820	; 0xc0000004
  9c:	97184006 	ldrls	r4, [r8, -r6]
  a0:	00001942 	andeq	r1, r0, r2, asr #18
  a4:	0b002403 	bleq	90b8 <_stack-0x76f48>
  a8:	030b3e0b 	movweq	r3, #48651	; 0xbe0b
  ac:	04000008 	streq	r0, [r0], #-8
  b0:	193f012e 	ldmdbne	pc!, {r1, r2, r3, r5, r8}	; <UNPREDICTABLE>
  b4:	0b3a0e03 	bleq	e838c8 <_stack+0xe038c8>
  b8:	19270b3b 	stmdbne	r7!, {r0, r1, r3, r4, r5, r8, r9, fp}
  bc:	01111349 	tsteq	r1, r9, asr #6
  c0:	18400612 	stmdane	r0, {r1, r4, r9, sl}^
  c4:	01194297 			; <UNDEFINED> instruction: 0x01194297
  c8:	05000013 	streq	r0, [r0, #-19]	; 0xffffffed
  cc:	08030005 	stmdaeq	r3, {r0, r2}
  d0:	0b3b0b3a 	bleq	ec2dc0 <_stack+0xe42dc0>
  d4:	18021349 	stmdane	r2, {r0, r3, r6, r8, r9, ip}
  d8:	2e060000 	cdpcs	0, 0, cr0, cr6, cr0, {0}
  dc:	03193f01 	tsteq	r9, #1, 30
  e0:	3b0b3a0e 	blcc	2ce920 <_stack+0x24e920>
  e4:	4919270b 	ldmdbmi	r9, {r0, r1, r3, r8, r9, sl, sp}
  e8:	12011113 	andne	r1, r1, #-1073741820	; 0xc0000004
  ec:	97184006 	ldrls	r4, [r8, -r6]
  f0:	00001942 	andeq	r1, r0, r2, asr #18
  f4:	01110100 	tsteq	r1, r0, lsl #2
  f8:	0b130e25 	bleq	4c3994 <_stack+0x443994>
  fc:	0e1b0e03 	cdpeq	14, 1, cr0, cr11, cr3, {0}
 100:	06120111 			; <UNDEFINED> instruction: 0x06120111
 104:	00001710 	andeq	r1, r0, r0, lsl r7
 108:	3f002e02 	svccc	0x00002e02
 10c:	3a0e0319 	bcc	380d78 <_stack+0x300d78>
 110:	490b3b0b 	stmdbmi	fp, {r0, r1, r3, r8, r9, fp, ip, sp}
 114:	12011113 	andne	r1, r1, #-1073741820	; 0xc0000004
 118:	97184006 	ldrls	r4, [r8, -r6]
 11c:	00001942 	andeq	r1, r0, r2, asr #18
 120:	0b002403 	bleq	9134 <_stack-0x76ecc>
 124:	030b3e0b 	movweq	r3, #48651	; 0xbe0b
 128:	00000008 	andeq	r0, r0, r8
 12c:	25011101 	strcs	r1, [r1, #-257]	; 0xfffffeff
 130:	030b130e 	movweq	r1, #45838	; 0xb30e
 134:	110e1b0e 	tstne	lr, lr, lsl #22
 138:	10061201 	andne	r1, r6, r1, lsl #4
 13c:	02000017 	andeq	r0, r0, #23
 140:	193f002e 	ldmdbne	pc!, {r1, r2, r3, r5}	; <UNPREDICTABLE>
 144:	0b3a0e03 	bleq	e83958 <_stack+0xe03958>
 148:	13490b3b 	movtne	r0, #39739	; 0x9b3b
 14c:	06120111 			; <UNDEFINED> instruction: 0x06120111
 150:	42971840 	addsmi	r1, r7, #64, 16	; 0x400000
 154:	03000019 	movweq	r0, #25
 158:	0b0b0024 	bleq	2c01f0 <_stack+0x2401f0>
 15c:	08030b3e 	stmdaeq	r3, {r1, r2, r3, r4, r5, r8, r9, fp}
 160:	24040000 	strcs	r0, [r4], #-0
 164:	3e0b0b00 	vmlacc.f64	d0, d11, d0
 168:	000e030b 	andeq	r0, lr, fp, lsl #6
 16c:	012e0500 			; <UNDEFINED> instruction: 0x012e0500
 170:	0e03193f 	mcreq	9, 0, r1, cr3, cr15, {1}
 174:	0b3b0b3a 	bleq	ec2e64 <_stack+0xe42e64>
 178:	13491927 	movtne	r1, #39207	; 0x9927
 17c:	06120111 			; <UNDEFINED> instruction: 0x06120111
 180:	42971840 	addsmi	r1, r7, #64, 16	; 0x400000
 184:	00130119 	andseq	r0, r3, r9, lsl r1
 188:	00050600 	andeq	r0, r5, r0, lsl #12
 18c:	0b3a0803 	bleq	e821a0 <_stack+0xe021a0>
 190:	13490b3b 	movtne	r0, #39739	; 0x9b3b
 194:	00001802 	andeq	r1, r0, r2, lsl #16
 198:	3f012e07 	svccc	0x00012e07
 19c:	3a0e0319 	bcc	380e08 <_stack+0x300e08>
 1a0:	270b3b0b 	strcs	r3, [fp, -fp, lsl #22]
 1a4:	11134919 	tstne	r3, r9, lsl r9
 1a8:	40061201 	andmi	r1, r6, r1, lsl #4
 1ac:	19429618 	stmdbne	r2, {r3, r4, r9, sl, ip, pc}^
 1b0:	00001301 	andeq	r1, r0, r1, lsl #6
 1b4:	03000508 	movweq	r0, #1288	; 0x508
 1b8:	3b0b3a0e 	blcc	2ce9f8 <_stack+0x24e9f8>
 1bc:	0213490b 	andseq	r4, r3, #180224	; 0x2c000
 1c0:	09000018 	stmdbeq	r0, {r3, r4}
 1c4:	0b0b000f 	bleq	2c0208 <_stack+0x240208>
 1c8:	00001349 	andeq	r1, r0, r9, asr #6
	...

Disassembly of section .debug_line:

00000000 <.debug_line>:
   0:	00000036 	andeq	r0, r0, r6, lsr r0
   4:	001e0002 	andseq	r0, lr, r2
   8:	01020000 	mrseq	r0, (UNDEF: 2)
   c:	000d0efb 	strdeq	r0, [sp], -fp
  10:	01010101 	tsteq	r1, r1, lsl #2
  14:	01000000 	mrseq	r0, (UNDEF: 0)
  18:	00010000 	andeq	r0, r1, r0
  1c:	72617473 	rsbvc	r7, r1, #1929379840	; 0x73000000
  20:	00532e74 	subseq	r2, r3, r4, ror lr
  24:	00000000 	andeq	r0, r0, r0
  28:	00020500 	andeq	r0, r2, r0, lsl #10
  2c:	15300000 	ldrne	r0, [r0, #-0]!
  30:	2f302f2f 	svccs	0x00302f2f
  34:	00020231 	andeq	r0, r2, r1, lsr r2
  38:	005a0101 	subseq	r0, sl, r1, lsl #2
  3c:	00020000 	andeq	r0, r2, r0
  40:	0000001d 	andeq	r0, r0, sp, lsl r0
  44:	0efb0102 	cdpeq	1, 15, cr0, cr11, cr2, {0}
  48:	0101000d 	tsteq	r1, sp
  4c:	00000101 	andeq	r0, r0, r1, lsl #2
  50:	00000100 	andeq	r0, r0, r0, lsl #2
  54:	616d0001 	cmnvs	sp, r1
  58:	632e6e69 			; <UNDEFINED> instruction: 0x632e6e69
  5c:	00000000 	andeq	r0, r0, r0
  60:	02050000 	andeq	r0, r5, #0
  64:	30000018 	andcc	r0, r0, r8, lsl r0
  68:	304e8317 	subcc	r8, lr, r7, lsl r3
  6c:	004c3130 	subeq	r3, ip, r0, lsr r1
  70:	67030402 	strvs	r0, [r3, -r2, lsl #8]
  74:	03040200 	movweq	r0, #16896	; 0x4200
  78:	04020049 	streq	r0, [r2], #-73	; 0xffffffb7
  7c:	06660601 	strbteq	r0, [r6], -r1, lsl #12
  80:	0402006a 	streq	r0, [r2], #-106	; 0xffffff96
  84:	02006703 	andeq	r6, r0, #786432	; 0xc0000
  88:	00490304 	subeq	r0, r9, r4, lsl #6
  8c:	06010402 	streq	r0, [r1], -r2, lsl #8
  90:	02690666 	rsbeq	r0, r9, #106954752	; 0x6600000
  94:	01010004 	tsteq	r1, r4
  98:	0000003f 	andeq	r0, r0, pc, lsr r0
  9c:	001c0002 	andseq	r0, ip, r2
  a0:	01020000 	mrseq	r0, (UNDEF: 2)
  a4:	000d0efb 	strdeq	r0, [sp], -fp
  a8:	01010101 	tsteq	r1, r1, lsl #2
  ac:	01000000 	mrseq	r0, (UNDEF: 0)
  b0:	00010000 	andeq	r0, r1, r0
  b4:	2e64656c 	cdpcs	5, 6, cr6, cr4, cr12, {3}
  b8:	00000063 	andeq	r0, r0, r3, rrx
  bc:	05000000 	streq	r0, [r0, #-0]
  c0:	0000a402 	andeq	sl, r0, r2, lsl #8
  c4:	010b0330 	tsteq	fp, r0, lsr r3
  c8:	2f68684c 	svccs	0x0068684c
  cc:	3d0883d9 	stccc	3, cr8, [r8, #-868]	; 0xfffffc9c
  d0:	0883a22f 	stmeq	r3, {r0, r1, r2, r3, r5, r9, sp, pc}
  d4:	0a022f21 	beq	8bd60 <_stack+0xbd60>
  d8:	36010100 	strcc	r0, [r1], -r0, lsl #2
  dc:	02000000 	andeq	r0, r0, #0
  e0:	00001e00 	andeq	r1, r0, r0, lsl #28
  e4:	fb010200 	blx	408ee <_stack-0x3f712>
  e8:	01000d0e 	tsteq	r0, lr, lsl #26
  ec:	00010101 	andeq	r0, r1, r1, lsl #2
  f0:	00010000 	andeq	r0, r1, r0
  f4:	63000100 	movwvs	r0, #256	; 0x100
  f8:	6b636f6c 	blvs	18dbeb0 <_stack+0x185beb0>
  fc:	0000632e 	andeq	r6, r0, lr, lsr #6
 100:	00000000 	andeq	r0, r0, r0
 104:	01800205 	orreq	r0, r0, r5, lsl #4
 108:	12033000 	andne	r3, r3, #0
 10c:	67684b01 	strbvs	r4, [r8, -r1, lsl #22]!
 110:	01001002 	tsteq	r0, r2
 114:	00005901 	andeq	r5, r0, r1, lsl #18
 118:	1d000200 	sfmne	f0, 4, [r0, #-0]
 11c:	02000000 	andeq	r0, r0, #0
 120:	0d0efb01 	vstreq	d15, [lr, #-4]
 124:	01010100 	mrseq	r0, (UNDEF: 17)
 128:	00000001 	andeq	r0, r0, r1
 12c:	01000001 	tsteq	r0, r1
 130:	72617500 	rsbvc	r7, r1, #0, 10
 134:	00632e74 	rsbeq	r2, r3, r4, ror lr
 138:	00000000 	andeq	r0, r0, r0
 13c:	c0020500 	andgt	r0, r2, r0, lsl #10
 140:	03300001 	teqeq	r0, #1
 144:	084b0113 	stmdaeq	fp, {r0, r1, r4, r8}^
 148:	67676821 	strbvs	r6, [r7, -r1, lsr #16]!
 14c:	f6676767 			; <UNDEFINED> instruction: 0xf6676767
 150:	0402004b 	streq	r0, [r2], #-75	; 0xffffffb5
 154:	062e0601 	strteq	r0, [lr], -r1, lsl #12
 158:	9fbe679f 	svcls	0x00be679f
 15c:	01040200 	mrseq	r0, R12_usr
 160:	9f062e06 	svcls	0x00062e06
 164:	83bd2f67 			; <UNDEFINED> instruction: 0x83bd2f67
 168:	8764832f 	strbhi	r8, [r4, -pc, lsr #6]!
 16c:	0008022f 	andeq	r0, r8, pc, lsr #4
 170:	Address 0x00000170 is out of bounds.


Disassembly of section .debug_frame:

00000000 <.debug_frame>:
   0:	0000000c 	andeq	r0, r0, ip
   4:	ffffffff 			; <UNDEFINED> instruction: 0xffffffff
   8:	7c020001 	stcvc	0, cr0, [r2], {1}
   c:	000d0c0e 	andeq	r0, sp, lr, lsl #24
  10:	00000018 	andeq	r0, r0, r8, lsl r0
  14:	00000000 	andeq	r0, r0, r0
  18:	30000018 	andcc	r0, r0, r8, lsl r0
  1c:	0000008c 	andeq	r0, r0, ip, lsl #1
  20:	8b080e42 	blhi	203930 <_stack+0x183930>
  24:	42018e02 	andmi	r8, r1, #2, 28
  28:	00040b0c 	andeq	r0, r4, ip, lsl #22
  2c:	0000000c 	andeq	r0, r0, ip
  30:	ffffffff 			; <UNDEFINED> instruction: 0xffffffff
  34:	7c020001 	stcvc	0, cr0, [r2], {1}
  38:	000d0c0e 	andeq	r0, sp, lr, lsl #24
  3c:	0000001c 	andeq	r0, r0, ip, lsl r0
  40:	0000002c 	andeq	r0, r0, ip, lsr #32
  44:	300000a4 	andcc	r0, r0, r4, lsr #1
  48:	00000040 	andeq	r0, r0, r0, asr #32
  4c:	8b040e42 	blhi	10395c <_stack+0x8395c>
  50:	0b0d4201 	bleq	35085c <_stack+0x2d085c>
  54:	420d0d52 	andmi	r0, sp, #5248	; 0x1480
  58:	00000ecb 	andeq	r0, r0, fp, asr #29
  5c:	0000001c 	andeq	r0, r0, ip, lsl r0
  60:	0000002c 	andeq	r0, r0, ip, lsr #32
  64:	300000e4 	andcc	r0, r0, r4, ror #1
  68:	00000050 	andeq	r0, r0, r0, asr r0
  6c:	8b040e42 	blhi	10397c <_stack+0x8397c>
  70:	0b0d4201 	bleq	35087c <_stack+0x2d087c>
  74:	420d0d5e 	andmi	r0, sp, #6016	; 0x1780
  78:	00000ecb 	andeq	r0, r0, fp, asr #29
  7c:	0000001c 	andeq	r0, r0, ip, lsl r0
  80:	0000002c 	andeq	r0, r0, ip, lsr #32
  84:	30000134 	andcc	r0, r0, r4, lsr r1
  88:	0000004c 	andeq	r0, r0, ip, asr #32
  8c:	8b040e42 	blhi	10399c <_stack+0x8399c>
  90:	0b0d4201 	bleq	35089c <_stack+0x2d089c>
  94:	420d0d5c 	andmi	r0, sp, #92, 26	; 0x1700
  98:	00000ecb 	andeq	r0, r0, fp, asr #29
  9c:	0000000c 	andeq	r0, r0, ip
  a0:	ffffffff 			; <UNDEFINED> instruction: 0xffffffff
  a4:	7c020001 	stcvc	0, cr0, [r2], {1}
  a8:	000d0c0e 	andeq	r0, sp, lr, lsl #24
  ac:	0000001c 	andeq	r0, r0, ip, lsl r0
  b0:	0000009c 	muleq	r0, ip, r0
  b4:	30000180 	andcc	r0, r0, r0, lsl #3
  b8:	00000040 	andeq	r0, r0, r0, asr #32
  bc:	8b040e42 	blhi	1039cc <_stack+0x839cc>
  c0:	0b0d4201 	bleq	3508cc <_stack+0x2d08cc>
  c4:	420d0d52 	andmi	r0, sp, #5248	; 0x1480
  c8:	00000ecb 	andeq	r0, r0, fp, asr #29
  cc:	0000000c 	andeq	r0, r0, ip
  d0:	ffffffff 			; <UNDEFINED> instruction: 0xffffffff
  d4:	7c020001 	stcvc	0, cr0, [r2], {1}
  d8:	000d0c0e 	andeq	r0, sp, lr, lsl #24
  dc:	0000001c 	andeq	r0, r0, ip, lsl r0
  e0:	000000cc 	andeq	r0, r0, ip, asr #1
  e4:	300001c0 	andcc	r0, r0, r0, asr #3
  e8:	00000094 	muleq	r0, r4, r0
  ec:	8b040e42 	blhi	1039fc <_stack+0x839fc>
  f0:	0b0d4201 	bleq	3508fc <_stack+0x2d08fc>
  f4:	420d0d7c 	andmi	r0, sp, #124, 26	; 0x1f00
  f8:	00000ecb 	andeq	r0, r0, fp, asr #29
  fc:	0000001c 	andeq	r0, r0, ip, lsl r0
 100:	000000cc 	andeq	r0, r0, ip, asr #1
 104:	30000254 	andcc	r0, r0, r4, asr r2
 108:	00000044 	andeq	r0, r0, r4, asr #32
 10c:	8b040e42 	blhi	103a1c <_stack+0x83a1c>
 110:	0b0d4201 	bleq	35091c <_stack+0x2d091c>
 114:	420d0d56 	andmi	r0, sp, #5504	; 0x1580
 118:	00000ecb 	andeq	r0, r0, fp, asr #29
 11c:	0000001c 	andeq	r0, r0, ip, lsl r0
 120:	000000cc 	andeq	r0, r0, ip, asr #1
 124:	30000298 	mulcc	r0, r8, r2
 128:	00000054 	andeq	r0, r0, r4, asr r0
 12c:	8b040e42 	blhi	103a3c <_stack+0x83a3c>
 130:	0b0d4201 	bleq	35093c <_stack+0x2d093c>
 134:	420d0d5e 	andmi	r0, sp, #6016	; 0x1780
 138:	00000ecb 	andeq	r0, r0, fp, asr #29
 13c:	00000020 	andeq	r0, r0, r0, lsr #32
 140:	000000cc 	andeq	r0, r0, ip, asr #1
 144:	300002ec 	andcc	r0, r0, ip, ror #5
 148:	00000054 	andeq	r0, r0, r4, asr r0
 14c:	8b080e42 	blhi	203a5c <_stack+0x183a5c>
 150:	42018e02 	andmi	r8, r1, #2, 28
 154:	62040b0c 	andvs	r0, r4, #12, 22	; 0x3000
 158:	42080d0c 	andmi	r0, r8, #12, 26	; 0x300
 15c:	000ecbce 	andeq	ip, lr, lr, asr #23

Disassembly of section .debug_str:

00000000 <.debug_str>:
   0:	657a6973 	ldrbvs	r6, [sl, #-2419]!	; 0xfffff68d
   4:	65707974 	ldrbvs	r7, [r0, #-2420]!	; 0xfffff68c
   8:	69616d00 	stmdbvs	r1!, {r8, sl, fp, sp, lr}^
   c:	4e47006e 	cdpmi	0, 4, cr0, cr7, cr14, {3}
  10:	31432055 	qdaddcc	r2, r5, r3
  14:	2e352031 	mrccs	0, 1, r2, cr5, cr1, {1}
  18:	20312e34 	eorscs	r2, r1, r4, lsr lr
  1c:	36313032 			; <UNDEFINED> instruction: 0x36313032
  20:	39313930 	ldmdbcc	r1!, {r4, r5, r8, fp, ip, sp}
  24:	65722820 	ldrbvs	r2, [r2, #-2080]!	; 0xfffff7e0
  28:	7361656c 	cmnvc	r1, #108, 10	; 0x1b000000
  2c:	5b202965 	blpl	80a5c8 <_stack+0x78a5c8>
  30:	2f4d5241 	svccs	0x004d5241
  34:	65626d65 	strbvs	r6, [r2, #-3429]!	; 0xfffff29b
  38:	64656464 	strbtvs	r6, [r5], #-1124	; 0xfffffb9c
  3c:	622d352d 	eorvs	r3, sp, #188743680	; 0xb400000
  40:	636e6172 	cmnvs	lr, #-2147483620	; 0x8000001c
  44:	65722068 	ldrbvs	r2, [r2, #-104]!	; 0xffffff98
  48:	69736976 	ldmdbvs	r3!, {r1, r2, r4, r5, r6, r8, fp, sp, lr}^
  4c:	32206e6f 	eorcc	r6, r0, #1776	; 0x6f0
  50:	39343034 	ldmdbcc	r4!, {r2, r4, r5, ip, sp}
  54:	2d205d36 	stccs	13, cr5, [r0, #-216]!	; 0xffffff28
  58:	616d0067 	cmnvs	sp, r7, rrx
  5c:	632e6e69 			; <UNDEFINED> instruction: 0x632e6e69
  60:	736e7500 	cmnvc	lr, #0, 10
  64:	656e6769 	strbvs	r6, [lr, #-1897]!	; 0xfffff897
  68:	68632064 	stmdavs	r3!, {r2, r5, r6, sp}^
  6c:	43007261 	movwmi	r7, #609	; 0x261
  70:	73555c3a 	cmpvc	r5, #14848	; 0x3a00
  74:	5c737265 	lfmpl	f7, 2, [r3], #-404	; 0xfffffe6c
  78:	44495a5a 	strbmi	r5, [r9], #-2650	; 0xfffff5a6
  7c:	69675c44 	stmdbvs	r7!, {r2, r6, sl, fp, ip, lr}^
  80:	696d5c74 	stmdbvs	sp!, {r2, r4, r5, r6, sl, fp, ip, lr}^
  84:	3432696e 	ldrtcc	r6, [r2], #-2414	; 0xfffff692
  88:	6d5c3034 	ldclvs	0, cr3, [ip, #-208]	; 0xffffff30
  8c:	32696e69 	rsbcc	r6, r9, #1680	; 0x690
  90:	5f303434 	svcpl	0x00303434
  94:	fabbe3c2 	blx	feef8fa4 <__bss_end__+0xceee8c54>
  98:	ebc2fab4 	bl	ff0beb70 <__bss_end__+0xcf0ae820>
  9c:	6c63655f 	cfstr64vs	mvdx6, [r3], #-380	; 0xfffffe84
  a0:	65737069 	ldrbvs	r7, [r3, #-105]!	; 0xffffff97
  a4:	bfaeb45c 	svclt	0x00aeb45c
  a8:	b3fdc0da 	mvnslt	ip, #218	; 0xda
  ac:	656c5ccc 	strbvs	r5, [ip, #-3276]!	; 0xfffff334
  b0:	656c0064 	strbvs	r0, [ip, #-100]!	; 0xffffff9c
  b4:	6e695f64 	cdpvs	15, 6, cr5, cr9, cr4, {3}
  b8:	6c007469 	cfstrsvs	mvf7, [r0], {105}	; 0x69
  bc:	6f5f6465 	svcvs	0x005f6465
  c0:	3a46006e 	bcc	1180280 <_stack+0x1100280>
  c4:	6e696d5c 	mcrvs	13, 3, r6, cr9, cr12, {2}
  c8:	34343269 	ldrtcc	r3, [r4], #-617	; 0xfffffd97
  cc:	6f775c30 	svcvs	0x00775c30
  d0:	5c316b72 	ldcpl	11, cr6, [r1], #-456	; 0xfffffe38
  d4:	0064656c 	rsbeq	r6, r4, ip, ror #10
  d8:	5f64656c 	svcpl	0x0064656c
  dc:	0066666f 	rsbeq	r6, r6, pc, ror #12
  e0:	2e64656c 	cdpcs	5, 6, cr6, cr4, cr12, {3}
  e4:	6c630063 	stclvs	0, cr0, [r3], #-396	; 0xfffffe74
  e8:	5f6b636f 	svcpl	0x006b636f
  ec:	74696e69 	strbtvc	r6, [r9], #-3689	; 0xfffff197
  f0:	6f6c6300 	svcvs	0x006c6300
  f4:	632e6b63 			; <UNDEFINED> instruction: 0x632e6b63
  f8:	72617500 	rsbvc	r7, r1, #0, 10
  fc:	75705f74 	ldrbvc	r5, [r0, #-3956]!	; 0xfffff08c
 100:	74735f74 	ldrbtvc	r5, [r3], #-3956	; 0xfffff08c
 104:	61750072 	cmnvs	r5, r2, ror r0
 108:	705f7472 	subsvc	r7, pc, r2, ror r4	; <UNPREDICTABLE>
 10c:	635f7475 	cmpvs	pc, #1962934272	; 0x75000000
 110:	00726168 	rsbseq	r6, r2, r8, ror #2
 114:	74726175 	ldrbtvc	r6, [r2], #-373	; 0xfffffe8b
 118:	696e695f 	stmdbvs	lr!, {r0, r1, r2, r3, r4, r6, r8, fp, sp, lr}^
 11c:	61750074 	cmnvs	r5, r4, ror r0
 120:	675f7472 			; <UNDEFINED> instruction: 0x675f7472
 124:	635f7465 	cmpvs	pc, #1694498816	; 0x65000000
 128:	00726168 	rsbseq	r6, r2, r8, ror #2
 12c:	74735f70 	ldrbtvc	r5, [r3], #-3952	; 0xfffff090
 130:	61750072 	cmnvs	r5, r2, ror r0
 134:	632e7472 			; <UNDEFINED> instruction: 0x632e7472
	...

Disassembly of section .ARM.attributes:

00000000 <_stack-0x80000>:
   0:	00002b41 	andeq	r2, r0, r1, asr #22
   4:	61656100 	cmnvs	r5, r0, lsl #2
   8:	01006962 	tsteq	r0, r2, ror #18
   c:	00000021 	andeq	r0, r0, r1, lsr #32
  10:	4d524105 	ldfmie	f4, [r2, #-20]	; 0xffffffec
  14:	4d445437 	cfstrdmi	mvd5, [r4, #-220]	; 0xffffff24
  18:	02060049 	andeq	r0, r6, #73	; 0x49
  1c:	01090108 	tsteq	r9, r8, lsl #2
  20:	01140412 	tsteq	r4, r2, lsl r4
  24:	03170115 	tsteq	r7, #1073741829	; 0x40000005
  28:	011a0118 	tsteq	sl, r8, lsl r1
